target datalayout = "e-m:e-p270:32:32-p271:32:32-p272:64:64-i64:64-i128:128-f80:128-n8:16:32:64-S128"
target triple = "x86_64-pc-linux-gnu"

%struct.rb_data_type_struct = type { ptr, %struct.anon, ptr, ptr, i64 }
%struct.anon = type { ptr, ptr, ptr, ptr, [1 x ptr] }
%struct.pkcs7_st = type { ptr, i64, i32, i32, ptr, %union.anon, %struct.PKCS7_CTX_st }
%union.anon = type { ptr }
%struct.PKCS7_CTX_st = type { ptr, ptr }

@ossl_pkcs7_type = internal constant %struct.rb_data_type_struct { ptr @.str.53, %struct.anon { ptr null, ptr @ossl_pkcs7_free, ptr null, ptr null, [1 x ptr] zeroinitializer }, ptr null, ptr null, i64 33 }, align 8
@rb_eRuntimeError = external global i64, align 8
@.str.1 = private unnamed_addr constant [26 x i8] c"PKCS7 wasn't initialized.\00", align 1
@.str.8 = private unnamed_addr constant [5 x i8] c"data\00", align 1
@ossl_pkcs7_get_type.rbimpl_id = internal global i64 0, align 8
@.str.64 = private unnamed_addr constant [7 x i8] c"signed\00", align 1
@ossl_pkcs7_get_type.rbimpl_id.65 = internal global i64 0, align 8
@.str.66 = private unnamed_addr constant [10 x i8] c"encrypted\00", align 1
@ossl_pkcs7_get_type.rbimpl_id.67 = internal global i64 0, align 8
@.str.68 = private unnamed_addr constant [10 x i8] c"enveloped\00", align 1
@ossl_pkcs7_get_type.rbimpl_id.69 = internal global i64 0, align 8
@.str.70 = private unnamed_addr constant [19 x i8] c"signedAndEnveloped\00", align 1
@ossl_pkcs7_get_type.rbimpl_id.71 = internal global i64 0, align 8

; Function Attrs: inlinehint nounwind sspstrong willreturn memory(read) uwtable
define internal i64 @rb_intern_const(ptr noundef nonnull %0) #8 {
  %2 = alloca ptr, align 8
  %3 = alloca i64, align 8
  store ptr %0, ptr %2, align 8, !tbaa !66
  call void @llvm.lifetime.start.p0(i64 8, ptr %3) #16
  %4 = load ptr, ptr %2, align 8, !tbaa !66
  %5 = call i64 @strlen(ptr noundef %4) #20
  store i64 %5, ptr %3, align 8, !tbaa !11
  %6 = load ptr, ptr %2, align 8, !tbaa !66
  %7 = load i64, ptr %3, align 8, !tbaa !11
  %8 = call i64 @rb_intern2(ptr noundef %6, i64 noundef %7)
  call void @llvm.lifetime.end.p0(i64 8, ptr %3) #16
  ret i64 %8
}

; Function Attrs: inlinehint nounwind sspstrong memory(argmem: readwrite, inaccessiblemem: readwrite) uwtable
define internal i64 @rbimpl_intern_const(ptr noundef nonnull %0, ptr noundef nonnull %1) #15 {
  %3 = alloca ptr, align 8
  %4 = alloca ptr, align 8
  store ptr %0, ptr %3, align 8, !tbaa !22
  store ptr %1, ptr %4, align 8, !tbaa !66
  br label %5

5:                                                ; preds = %10, %2
  %6 = load ptr, ptr %3, align 8, !tbaa !22
  %7 = load i64, ptr %6, align 8, !tbaa !11
  %8 = icmp ne i64 %7, 0
  %9 = xor i1 %8, true
  br i1 %9, label %10, label %14

10:                                               ; preds = %5
  %11 = load ptr, ptr %4, align 8, !tbaa !66
  %12 = call i64 @rb_intern_const(ptr noundef %11) #20
  %13 = load ptr, ptr %3, align 8, !tbaa !22
  store i64 %12, ptr %13, align 8, !tbaa !11
  br label %5, !llvm.loop !102

14:                                               ; preds = %5
  %15 = load ptr, ptr %3, align 8, !tbaa !22
  %16 = load i64, ptr %15, align 8, !tbaa !11
  ret i64 %16
}

; Function Attrs: nounwind sspstrong uwtable
define internal i64 @ossl_pkcs7_get_type(i64 noundef %0) #0 {
  %2 = alloca i64, align 8
  %3 = alloca i64, align 8
  %4 = alloca ptr, align 8
  %5 = alloca i64, align 8
  %6 = alloca i32, align 4
  %7 = alloca i64, align 8
  %8 = alloca i64, align 8
  %9 = alloca i64, align 8
  %10 = alloca i64, align 8
  store i64 %0, ptr %3, align 8, !tbaa !11
  call void @llvm.lifetime.start.p0(i64 8, ptr %4) #16
  br label %11

11:                                               ; preds = %1
  %12 = load i64, ptr %3, align 8, !tbaa !11
  %13 = call ptr @rb_check_typeddata(i64 noundef %12, ptr noundef @ossl_pkcs7_type)
  store ptr %13, ptr %4, align 8, !tbaa !6
  %14 = load ptr, ptr %4, align 8, !tbaa !6
  %15 = icmp ne ptr %14, null
  br i1 %15, label %18, label %16

16:                                               ; preds = %11
  %17 = load i64, ptr @rb_eRuntimeError, align 8, !tbaa !11
  call void (i64, ptr, ...) @ossl_raise(i64 noundef %17, ptr noundef @.str.1) #17
  unreachable

18:                                               ; preds = %11
  br label %19

19:                                               ; preds = %18
  br label %20

20:                                               ; preds = %19
  %21 = load ptr, ptr %4, align 8, !tbaa !6
  %22 = getelementptr inbounds nuw %struct.pkcs7_st, ptr %21, i32 0, i32 4
  %23 = load ptr, ptr %22, align 8, !tbaa !24
  %24 = call i32 @OBJ_obj2nid(ptr noundef %23)
  %25 = icmp eq i32 %24, 22
  br i1 %25, label %26, label %30

26:                                               ; preds = %20
  %27 = call i64 @rbimpl_intern_const(ptr noundef @ossl_pkcs7_get_type.rbimpl_id, ptr noundef @.str.64) #19
  store i64 %27, ptr %5, align 8, !tbaa !11
  %28 = load i64, ptr %5, align 8, !tbaa !11
  %29 = call i64 @rb_id2sym(i64 noundef %28)
  store i64 %29, ptr %2, align 8
  store i32 1, ptr %6, align 4
  br label %71

30:                                               ; preds = %20
  %31 = load ptr, ptr %4, align 8, !tbaa !6
  %32 = getelementptr inbounds nuw %struct.pkcs7_st, ptr %31, i32 0, i32 4
  %33 = load ptr, ptr %32, align 8, !tbaa !24
  %34 = call i32 @OBJ_obj2nid(ptr noundef %33)
  %35 = icmp eq i32 %34, 26
  br i1 %35, label %36, label %40

36:                                               ; preds = %30
  %37 = call i64 @rbimpl_intern_const(ptr noundef @ossl_pkcs7_get_type.rbimpl_id.65, ptr noundef @.str.66) #19
  store i64 %37, ptr %7, align 8, !tbaa !11
  %38 = load i64, ptr %7, align 8, !tbaa !11
  %39 = call i64 @rb_id2sym(i64 noundef %38)
  store i64 %39, ptr %2, align 8
  store i32 1, ptr %6, align 4
  br label %71

40:                                               ; preds = %30
  %41 = load ptr, ptr %4, align 8, !tbaa !6
  %42 = getelementptr inbounds nuw %struct.pkcs7_st, ptr %41, i32 0, i32 4
  %43 = load ptr, ptr %42, align 8, !tbaa !24
  %44 = call i32 @OBJ_obj2nid(ptr noundef %43)
  %45 = icmp eq i32 %44, 23
  br i1 %45, label %46, label %50

46:                                               ; preds = %40
  %47 = call i64 @rbimpl_intern_const(ptr noundef @ossl_pkcs7_get_type.rbimpl_id.67, ptr noundef @.str.68) #19
  store i64 %47, ptr %8, align 8, !tbaa !11
  %48 = load i64, ptr %8, align 8, !tbaa !11
  %49 = call i64 @rb_id2sym(i64 noundef %48)
  store i64 %49, ptr %2, align 8
  store i32 1, ptr %6, align 4
  br label %71

50:                                               ; preds = %40
  %51 = load ptr, ptr %4, align 8, !tbaa !6
  %52 = getelementptr inbounds nuw %struct.pkcs7_st, ptr %51, i32 0, i32 4
  %53 = load ptr, ptr %52, align 8, !tbaa !24
  %54 = call i32 @OBJ_obj2nid(ptr noundef %53)
  %55 = icmp eq i32 %54, 24
  br i1 %55, label %56, label %60

56:                                               ; preds = %50
  %57 = call i64 @rbimpl_intern_const(ptr noundef @ossl_pkcs7_get_type.rbimpl_id.69, ptr noundef @.str.70) #19
  store i64 %57, ptr %9, align 8, !tbaa !11
  %58 = load i64, ptr %9, align 8, !tbaa !11
  %59 = call i64 @rb_id2sym(i64 noundef %58)
  store i64 %59, ptr %2, align 8
  store i32 1, ptr %6, align 4
  br label %71

60:                                               ; preds = %50
  %61 = load ptr, ptr %4, align 8, !tbaa !6
  %62 = getelementptr inbounds nuw %struct.pkcs7_st, ptr %61, i32 0, i32 4
  %63 = load ptr, ptr %62, align 8, !tbaa !24
  %64 = call i32 @OBJ_obj2nid(ptr noundef %63)
  %65 = icmp eq i32 %64, 21
  br i1 %65, label %66, label %70

66:                                               ; preds = %60
  %67 = call i64 @rbimpl_intern_const(ptr noundef @ossl_pkcs7_get_type.rbimpl_id.71, ptr noundef @.str.8) #19
  store i64 %67, ptr %10, align 8, !tbaa !11
  %68 = load i64, ptr %10, align 8, !tbaa !11
  %69 = call i64 @rb_id2sym(i64 noundef %68)
  store i64 %69, ptr %2, align 8
  store i32 1, ptr %6, align 4
  br label %71

70:                                               ; preds = %60
  store i64 4, ptr %2, align 8
  store i32 1, ptr %6, align 4
  br label %71

71:                                               ; preds = %70, %66, %56, %46, %36, %26
  call void @llvm.lifetime.end.p0(i64 8, ptr %4) #16
  %72 = load i64, ptr %2, align 8
  ret i64 %72
}