; Function Attrs: nounwind sspstrong uwtable
define internal i64 @ossl_pkcs7_get_type(i64 noundef %0) #0 {
  %2 = tail call ptr @rb_check_typeddata(i64 noundef %0, ptr noundef nonnull @ossl_pkcs7_type) #5
  %.not = icmp eq ptr %2, null
  br i1 %.not, label %3, label %5

3:                                                ; preds = %1
  %4 = load i64, ptr @rb_eRuntimeError, align 8, !tbaa !6
  tail call void (i64, ptr, ...) @ossl_raise(i64 noundef %4, ptr noundef nonnull @.str.1) #6
  unreachable

5:                                                ; preds = %1
  %6 = getelementptr inbounds nuw i8, ptr %2, i64 24
  %7 = load ptr, ptr %6, align 8, !tbaa !22
  %8 = tail call i32 @OBJ_obj2nid(ptr noundef %7) #5
  %9 = icmp eq i32 %8, 22
  br i1 %9, label %10, label %12

10:                                               ; preds = %5
  %.pr.i = load i64, ptr @ossl_pkcs7_get_type.rbimpl_id, align 8, !tbaa !6
  %.not4.i = icmp eq i64 %.pr.i, 0
  br i1 %.not4.i, label %.lr.ph.i, label %.sink.split

.lr.ph.i:                                         ; preds = %10, %.lr.ph.i
  %11 = tail call i64 @rb_intern2(ptr noundef nonnull @.str.64, i64 noundef 6) #5
  store i64 %11, ptr @ossl_pkcs7_get_type.rbimpl_id, align 8, !tbaa !6
  %.not.i = icmp eq i64 %11, 0
  br i1 %.not.i, label %.lr.ph.i, label %.sink.split, !llvm.loop !42

12:                                               ; preds = %5
  %13 = load ptr, ptr %6, align 8, !tbaa !22
  %14 = tail call i32 @OBJ_obj2nid(ptr noundef %13) #5
  %15 = icmp eq i32 %14, 26
  br i1 %15, label %16, label %18

16:                                               ; preds = %12
  %.pr.i13 = load i64, ptr @ossl_pkcs7_get_type.rbimpl_id.65, align 8, !tbaa !6
  %.not4.i14 = icmp eq i64 %.pr.i13, 0
  br i1 %.not4.i14, label %.lr.ph.i16, label %.sink.split

.lr.ph.i16:                                       ; preds = %16, %.lr.ph.i16
  %17 = tail call i64 @rb_intern2(ptr noundef nonnull @.str.66, i64 noundef 9) #5
  store i64 %17, ptr @ossl_pkcs7_get_type.rbimpl_id.65, align 8, !tbaa !6
  %.not.i17 = icmp eq i64 %17, 0
  br i1 %.not.i17, label %.lr.ph.i16, label %.sink.split, !llvm.loop !42

18:                                               ; preds = %12
  %19 = load ptr, ptr %6, align 8, !tbaa !22
  %20 = tail call i32 @OBJ_obj2nid(ptr noundef %19) #5
  %21 = icmp eq i32 %20, 23
  br i1 %21, label %22, label %24

22:                                               ; preds = %18
  %.pr.i19 = load i64, ptr @ossl_pkcs7_get_type.rbimpl_id.67, align 8, !tbaa !6
  %.not4.i20 = icmp eq i64 %.pr.i19, 0
  br i1 %.not4.i20, label %.lr.ph.i22, label %.sink.split

.lr.ph.i22:                                       ; preds = %22, %.lr.ph.i22
  %23 = tail call i64 @rb_intern2(ptr noundef nonnull @.str.68, i64 noundef 9) #5
  store i64 %23, ptr @ossl_pkcs7_get_type.rbimpl_id.67, align 8, !tbaa !6
  %.not.i23 = icmp eq i64 %23, 0
  br i1 %.not.i23, label %.lr.ph.i22, label %.sink.split, !llvm.loop !42

24:                                               ; preds = %18
  %25 = load ptr, ptr %6, align 8, !tbaa !22
  %26 = tail call i32 @OBJ_obj2nid(ptr noundef %25) #5
  %27 = icmp eq i32 %26, 24
  br i1 %27, label %28, label %30

28:                                               ; preds = %24
  %.pr.i25 = load i64, ptr @ossl_pkcs7_get_type.rbimpl_id.69, align 8, !tbaa !6
  %.not4.i26 = icmp eq i64 %.pr.i25, 0
  br i1 %.not4.i26, label %.lr.ph.i28, label %.sink.split

.lr.ph.i28:                                       ; preds = %28, %.lr.ph.i28
  %29 = tail call i64 @rb_intern2(ptr noundef nonnull @.str.70, i64 noundef 18) #5
  store i64 %29, ptr @ossl_pkcs7_get_type.rbimpl_id.69, align 8, !tbaa !6
  %.not.i29 = icmp eq i64 %29, 0
  br i1 %.not.i29, label %.lr.ph.i28, label %.sink.split, !llvm.loop !42

30:                                               ; preds = %24
  %31 = load ptr, ptr %6, align 8, !tbaa !22
  %32 = tail call i32 @OBJ_obj2nid(ptr noundef %31) #5
  %33 = icmp eq i32 %32, 21
  br i1 %33, label %34, label %37

34:                                               ; preds = %30
  %.pr.i31 = load i64, ptr @ossl_pkcs7_get_type.rbimpl_id.71, align 8, !tbaa !6
  %.not4.i32 = icmp eq i64 %.pr.i31, 0
  br i1 %.not4.i32, label %.lr.ph.i34, label %.sink.split

.lr.ph.i34:                                       ; preds = %34, %.lr.ph.i34
  %35 = tail call i64 @rb_intern2(ptr noundef nonnull @.str.8, i64 noundef 4) #5
  store i64 %35, ptr @ossl_pkcs7_get_type.rbimpl_id.71, align 8, !tbaa !6
  %.not.i35 = icmp eq i64 %35, 0
  br i1 %.not.i35, label %.lr.ph.i34, label %.sink.split, !llvm.loop !42

.sink.split:                                      ; preds = %.lr.ph.i34, %.lr.ph.i28, %.lr.ph.i22, %.lr.ph.i16, %.lr.ph.i, %34, %28, %22, %16, %10
  %.lcssa.i33.sink = phi i64 [ %.pr.i, %10 ], [ %.pr.i13, %16 ], [ %.pr.i19, %22 ], [ %.pr.i25, %28 ], [ %.pr.i31, %34 ], [ %11, %.lr.ph.i ], [ %17, %.lr.ph.i16 ], [ %23, %.lr.ph.i22 ], [ %29, %.lr.ph.i28 ], [ %35, %.lr.ph.i34 ]
  %36 = tail call i64 @rb_id2sym(i64 noundef %.lcssa.i33.sink) #5
  br label %37

37:                                               ; preds = %.sink.split, %30
  %.0 = phi i64 [ 4, %30 ], [ %36, %.sink.split ]
  ret i64 %.0
}